target datalayout = "e-m:e-p270:32:32-p271:32:32-p272:64:64-i64:64-i128:128-f80:128-n8:16:32:64-S128"
target triple = "x86_64-unknown-linux-gnu"

%"struct.EA::StdC::intrusive_list_node" = type { ptr, ptr }
%"struct.(anonymous namespace)::OSGlobalManager" = type { %"class.EA::StdC::intrusive_list", i32, [4 x i8], %"class.EA::StdC::Mutex" }
%"class.EA::StdC::intrusive_list" = type { %"class.EA::StdC::intrusive_list_base" }
%"class.EA::StdC::intrusive_list_base" = type { %"struct.EA::StdC::intrusive_list_node" }
%"class.EA::StdC::Mutex" = type { %"class.EA::Thread::Mutex" }
%"class.EA::Thread::Mutex" = type { %struct.EAMutexData }
%struct.EAMutexData = type <{ %union.pthread_mutex_t, i32, [4 x i8] }>
%union.pthread_mutex_t = type { %struct.__pthread_mutex_s }
%struct.__pthread_mutex_s = type { i32, i32, i32, i32, i32, i16, i16, %struct.__pthread_internal_list }
%struct.__pthread_internal_list = type { ptr, ptr }

@_ZN12_GLOBAL__N_117gpOSGlobalManagerE = internal global ptr null, align 8
@_ZN12_GLOBAL__N_113gOSGlobalRefsE = internal global i32 0, align 4
@.str = private unnamed_addr constant [20 x i8] c"/SingleMgrMutex%llu\00", align 1
@.str.4 = private unnamed_addr constant [6 x i8] c"%I64x\00", align 1

; Function Attrs: mustprogress nounwind uwtable
define linkonce_odr dso_local noundef i32 @_ZN2EA6Thread14AtomicSetValueEPVjj(ptr noundef %dest, i32 noundef %value) #1 comdat {
entry:
  %dest.addr = alloca ptr, align 8
  %value.addr = alloca i32, align 4
  store ptr %dest, ptr %dest.addr, align 8
  store i32 %value, ptr %value.addr, align 4
  %0 = load ptr, ptr %dest.addr, align 8
  %1 = load i32, ptr %value.addr, align 4
  %2 = atomicrmw xchg ptr %0, i32 %1 seq_cst, align 4
  ret i32 %2
}

; Function Attrs: mustprogress nounwind uwtable
define linkonce_odr dso_local void @_ZN2EA4StdC19intrusive_list_baseC2Ev(ptr noundef nonnull align 8 dereferenceable(16) %this) unnamed_addr #1 comdat align 2 {
entry:
  %this.addr = alloca ptr, align 8
  store ptr %this, ptr %this.addr, align 8
  %this1 = load ptr, ptr %this.addr, align 8
  %mAnchor2 = getelementptr inbounds %"class.EA::StdC::intrusive_list_base", ptr %this1, i32 0, i32 0
  %mAnchor3 = getelementptr inbounds %"class.EA::StdC::intrusive_list_base", ptr %this1, i32 0, i32 0
  %mpPrev = getelementptr inbounds %"struct.EA::StdC::intrusive_list_node", ptr %mAnchor3, i32 0, i32 1
  store ptr %mAnchor2, ptr %mpPrev, align 8
  %mAnchor4 = getelementptr inbounds %"class.EA::StdC::intrusive_list_base", ptr %this1, i32 0, i32 0
  %mpNext = getelementptr inbounds %"struct.EA::StdC::intrusive_list_node", ptr %mAnchor4, i32 0, i32 0
  store ptr %mAnchor2, ptr %mpNext, align 8
  ret void
}

; Function Attrs: mustprogress nounwind uwtable
define internal void @_ZN12_GLOBAL__N_115OSGlobalManagerD2Ev(ptr noundef nonnull align 8 dereferenceable(72) %this) unnamed_addr #1 align 2 {
entry:
  %this.addr = alloca ptr, align 8
  store ptr %this, ptr %this.addr, align 8
  %this1 = load ptr, ptr %this.addr, align 8
  %mcsLock = getelementptr inbounds %"struct.(anonymous namespace)::OSGlobalManager", ptr %this1, i32 0, i32 3
  call void @_ZN2EA4StdC5MutexD2Ev(ptr noundef nonnull align 8 dereferenceable(48) %mcsLock) #3
  ret void
}

; Function Attrs: mustprogress nounwind uwtable
define linkonce_odr dso_local noundef i32 @_ZN2EA6Thread20AtomicFetchDecrementEPVj(ptr noundef %dest) #1 comdat {
entry:
  %dest.addr = alloca ptr, align 8
  store ptr %dest, ptr %dest.addr, align 8
  %0 = load ptr, ptr %dest.addr, align 8
  %1 = atomicrmw add ptr %0, i32 -1 seq_cst, align 4
  ret i32 %1
}

; Function Attrs: mustprogress nounwind uwtable
define linkonce_odr dso_local void @_ZN2EA4StdC5MutexD2Ev(ptr noundef nonnull align 8 dereferenceable(48) %this) unnamed_addr #1 comdat align 2 {
entry:
  %this.addr = alloca ptr, align 8
  store ptr %this, ptr %this.addr, align 8
  %this1 = load ptr, ptr %this.addr, align 8
  %mMutex = getelementptr inbounds %"class.EA::StdC::Mutex", ptr %this1, i32 0, i32 0
  call void @_ZN2EA6Thread5MutexD1Ev(ptr noundef nonnull align 8 dereferenceable(48) %mMutex) #3
  ret void
}

; Function Attrs: mustprogress uwtable
define linkonce_odr dso_local noundef i32 @_ZN2EA4StdC9AtomicSetEPjj(ptr noundef %pValue, i32 noundef %newValue) #2 comdat {
entry:
  %pValue.addr = alloca ptr, align 8
  %newValue.addr = alloca i32, align 4
  store ptr %pValue, ptr %pValue.addr, align 8
  store i32 %newValue, ptr %newValue.addr, align 4
  %0 = load ptr, ptr %pValue.addr, align 8
  %1 = load i32, ptr %newValue.addr, align 4
  %call = call noundef i32 @_ZN2EA6Thread14AtomicSetValueEPVjj(ptr noundef %0, i32 noundef %1)
  ret i32 %call
}

; Function Attrs: mustprogress uwtable
define linkonce_odr dso_local void @_ZN2EA4StdC5MutexC2Ev(ptr noundef nonnull align 8 dereferenceable(48) %this) unnamed_addr #2 comdat align 2 {
entry:
  %this.addr = alloca ptr, align 8
  store ptr %this, ptr %this.addr, align 8
  %this1 = load ptr, ptr %this.addr, align 8
  %mMutex = getelementptr inbounds %"class.EA::StdC::Mutex", ptr %this1, i32 0, i32 0
  call void @_ZN2EA6Thread5MutexC1EPKNS0_15MutexParametersEb(ptr noundef nonnull align 8 dereferenceable(48) %mMutex, ptr noundef null, i1 noundef zeroext true)
  ret void
}

; Function Attrs: mustprogress uwtable
define linkonce_odr dso_local void @_ZN2EA4StdC14intrusive_listINS0_12OSGlobalNodeEEC2Ev(ptr noundef nonnull align 8 dereferenceable(16) %this) unnamed_addr #2 comdat align 2 {
entry:
  %this.addr = alloca ptr, align 8
  store ptr %this, ptr %this.addr, align 8
  %this1 = load ptr, ptr %this.addr, align 8
  call void @_ZN2EA4StdC19intrusive_list_baseC2Ev(ptr noundef nonnull align 8 dereferenceable(16) %this1)
  ret void
}

; Function Attrs: mustprogress nounwind uwtable
define internal void @_ZN12_GLOBAL__N_122DestroyOSGlobalManagerEPNS_15OSGlobalManagerE(ptr noundef %pOSGlobalManager) #1 {
entry:
  %pOSGlobalManager.addr = alloca ptr, align 8
  store ptr %pOSGlobalManager, ptr %pOSGlobalManager.addr, align 8
  %0 = load ptr, ptr %pOSGlobalManager.addr, align 8
  %tobool = icmp ne ptr %0, null
  br i1 %tobool, label %if.then, label %if.end

if.then:                                          ; preds = %entry
  %1 = load ptr, ptr @_ZN12_GLOBAL__N_117gpOSGlobalManagerE, align 8
  call void @_ZN12_GLOBAL__N_115OSGlobalManagerD2Ev(ptr noundef nonnull align 8 dereferenceable(72) %1) #3
  %2 = load ptr, ptr %pOSGlobalManager.addr, align 8
  %call = call i32 @munmap(ptr noundef %2, i64 noundef 72) #3
  br label %if.end

if.end:                                           ; preds = %if.then, %entry
  ret void
}

; Function Attrs: mustprogress uwtable
define linkonce_odr dso_local noundef i32 @_ZN2EA4StdC15AtomicDecrementEPj(ptr noundef %pValue) #2 comdat {
entry:
  %pValue.addr = alloca ptr, align 8
  store ptr %pValue, ptr %pValue.addr, align 8
  %0 = load ptr, ptr %pValue.addr, align 8
  %call = call noundef i32 @_ZN2EA6Thread20AtomicFetchDecrementEPVj(ptr noundef %0)
  %sub = sub i32 %call, 1
  ret i32 %sub
}

; Function Attrs: mustprogress nounwind uwtable
define linkonce_odr dso_local noundef i32 @_ZN2EA6Thread20AtomicFetchIncrementEPVj(ptr noundef %dest) #1 comdat {
entry:
  %dest.addr = alloca ptr, align 8
  store ptr %dest, ptr %dest.addr, align 8
  %0 = load ptr, ptr %dest.addr, align 8
  %1 = atomicrmw add ptr %0, i32 1 seq_cst, align 4
  ret i32 %1
}

; Function Attrs: mustprogress uwtable
define internal void @_ZN12_GLOBAL__N_115OSGlobalManagerC2Ev(ptr noundef nonnull align 8 dereferenceable(72) %this) unnamed_addr #2 align 2 personality ptr @__gxx_personality_v0 {
entry:
  %this.addr = alloca ptr, align 8
  %exn.slot = alloca ptr, align 8
  %ehselector.slot = alloca i32, align 4
  store ptr %this, ptr %this.addr, align 8
  %this1 = load ptr, ptr %this.addr, align 8
  %mOSGlobalList = getelementptr inbounds %"struct.(anonymous namespace)::OSGlobalManager", ptr %this1, i32 0, i32 0
  call void @_ZN2EA4StdC14intrusive_listINS0_12OSGlobalNodeEEC2Ev(ptr noundef nonnull align 8 dereferenceable(16) %mOSGlobalList)
  %mcsLock = getelementptr inbounds %"struct.(anonymous namespace)::OSGlobalManager", ptr %this1, i32 0, i32 3
  call void @_ZN2EA4StdC5MutexC2Ev(ptr noundef nonnull align 8 dereferenceable(48) %mcsLock)
  %mRefCount = getelementptr inbounds %"struct.(anonymous namespace)::OSGlobalManager", ptr %this1, i32 0, i32 1
  %call = invoke noundef i32 @_ZN2EA4StdC9AtomicSetEPjj(ptr noundef %mRefCount, i32 noundef 0)
          to label %invoke.cont unwind label %lpad

invoke.cont:                                      ; preds = %entry
  ret void

lpad:                                             ; preds = %entry
  %0 = landingpad { ptr, i32 }
          cleanup
  %1 = extractvalue { ptr, i32 } %0, 0
  store ptr %1, ptr %exn.slot, align 8
  %2 = extractvalue { ptr, i32 } %0, 1
  store i32 %2, ptr %ehselector.slot, align 4
  call void @_ZN2EA4StdC5MutexD2Ev(ptr noundef nonnull align 8 dereferenceable(48) %mcsLock) #3
  br label %eh.resume

eh.resume:                                        ; preds = %lpad
  %exn = load ptr, ptr %exn.slot, align 8
  %sel = load i32, ptr %ehselector.slot, align 4
  %lpad.val = insertvalue { ptr, i32 } poison, ptr %exn, 0
  %lpad.val2 = insertvalue { ptr, i32 } %lpad.val, i32 %sel, 1
  resume { ptr, i32 } %lpad.val2
}

; Function Attrs: mustprogress uwtable
define internal void @_ZN12_GLOBAL__N_122ShutdownOSGlobalSystemEv() #2 {
entry:
  %uniqueName = alloca [96 x i8], align 16
  %processID = alloca i32, align 4
  %call = call noundef i32 @_ZN2EA4StdC15AtomicDecrementEPj(ptr noundef @_ZN12_GLOBAL__N_113gOSGlobalRefsE)
  %cmp = icmp eq i32 %call, 0
  br i1 %cmp, label %if.then, label %if.end10

if.then:                                          ; preds = %entry
  %0 = load ptr, ptr @_ZN12_GLOBAL__N_117gpOSGlobalManagerE, align 8
  %tobool = icmp ne ptr %0, null
  br i1 %tobool, label %if.then1, label %if.end5

if.then1:                                         ; preds = %if.then
  %1 = load ptr, ptr @_ZN12_GLOBAL__N_117gpOSGlobalManagerE, align 8
  %mRefCount = getelementptr inbounds %"struct.(anonymous namespace)::OSGlobalManager", ptr %1, i32 0, i32 1
  %call2 = call noundef i32 @_ZN2EA4StdC15AtomicDecrementEPj(ptr noundef %mRefCount)
  %cmp3 = icmp eq i32 %call2, 0
  br i1 %cmp3, label %if.then4, label %if.end

if.then4:                                         ; preds = %if.then1
  %2 = load ptr, ptr @_ZN12_GLOBAL__N_117gpOSGlobalManagerE, align 8
  call void @_ZN12_GLOBAL__N_122DestroyOSGlobalManagerEPNS_15OSGlobalManagerE(ptr noundef %2)
  br label %if.end

if.end:                                           ; preds = %if.then4, %if.then1
  store ptr null, ptr @_ZN12_GLOBAL__N_117gpOSGlobalManagerE, align 8
  br label %if.end5

if.end5:                                          ; preds = %if.end, %if.then
  %arrayidx = getelementptr inbounds [96 x i8], ptr %uniqueName, i64 0, i64 0
  store i8 0, ptr %arrayidx, align 16
  %call6 = call i32 @getpid() #3
  store i32 %call6, ptr %processID, align 4
  %arraydecay = getelementptr inbounds [96 x i8], ptr %uniqueName, i64 0, i64 0
  %3 = load i32, ptr %processID, align 4
  %conv = sext i32 %3 to i64
  %call7 = call noundef i32 (ptr, ptr, ...) @_ZN2EA4StdC7SprintfEPcPKcz(ptr noundef %arraydecay, ptr noundef @.str, i64 noundef %conv)
  %arraydecay8 = getelementptr inbounds [96 x i8], ptr %uniqueName, i64 0, i64 0
  %call9 = call i32 @unsetenv(ptr noundef %arraydecay8) #3
  br label %if.end10

if.end10:                                         ; preds = %if.end5, %entry
  ret void
}

; Function Attrs: mustprogress uwtable
define linkonce_odr dso_local noundef i32 @_ZN2EA4StdC15AtomicIncrementEPj(ptr noundef %pValue) #2 comdat {
entry:
  %pValue.addr = alloca ptr, align 8
  store ptr %pValue, ptr %pValue.addr, align 8
  %0 = load ptr, ptr %pValue.addr, align 8
  %call = call noundef i32 @_ZN2EA6Thread20AtomicFetchIncrementEPVj(ptr noundef %0)
  %add = add i32 %call, 1
  ret i32 %add
}

; Function Attrs: mustprogress uwtable
define internal noundef ptr @_ZN12_GLOBAL__N_121CreateOSGlobalManagerEv() #2 {
entry:
  %retval = alloca ptr, align 8
  %pMemory = alloca ptr, align 8
  %call = call ptr @mmap(ptr noundef null, i64 noundef 72, i32 noundef 3, i32 noundef 34, i32 noundef -1, i64 noundef 0) #3
  store ptr %call, ptr %pMemory, align 8
  %0 = load ptr, ptr %pMemory, align 8
  %tobool = icmp ne ptr %0, null
  br i1 %tobool, label %if.then, label %if.end

if.then:                                          ; preds = %entry
  %1 = load ptr, ptr %pMemory, align 8
  call void @_ZN12_GLOBAL__N_115OSGlobalManagerC2Ev(ptr noundef nonnull align 8 dereferenceable(72) %1)
  store ptr %1, ptr %retval, align 8
  br label %return

if.end:                                           ; preds = %entry
  store ptr null, ptr %retval, align 8
  br label %return

return:                                           ; preds = %if.end, %if.then
  %2 = load ptr, ptr %retval, align 8
  ret ptr %2
}

; Function Attrs: mustprogress uwtable
define internal noundef zeroext i1 @_ZN12_GLOBAL__N_118InitOSGlobalSystemEv() #2 {
entry:
  %retval = alloca i1, align 1
  %uniqueName = alloca [96 x i8], align 16
  %processID = alloca i32, align 4
  %mutex = alloca ptr, align 8
  %pName = alloca ptr, align 8
  %buffer = alloca [32 x i8], align 16
  %0 = load ptr, ptr @_ZN12_GLOBAL__N_117gpOSGlobalManagerE, align 8
  %tobool = icmp ne ptr %0, null
  br i1 %tobool, label %if.end37, label %if.then

if.then:                                          ; preds = %entry
  %call = call i32 @getpid() #3
  store i32 %call, ptr %processID, align 4
  %arraydecay = getelementptr inbounds [96 x i8], ptr %uniqueName, i64 0, i64 0
  %1 = load i32, ptr %processID, align 4
  %conv = sext i32 %1 to i64
  %call1 = call noundef i32 (ptr, ptr, ...) @_ZN2EA4StdC7SprintfEPcPKcz(ptr noundef %arraydecay, ptr noundef @.str, i64 noundef %conv)
  %arraydecay2 = getelementptr inbounds [96 x i8], ptr %uniqueName, i64 0, i64 0
  %call3 = call ptr (ptr, i32, ...) @sem_open(ptr noundef %arraydecay2, i32 noundef 64, i32 noundef 420, i32 noundef 1) #3
  store ptr %call3, ptr %mutex, align 8
  %2 = load ptr, ptr %mutex, align 8
  %cmp = icmp eq ptr %2, null
  br i1 %cmp, label %if.then4, label %if.end

if.then4:                                         ; preds = %if.then
  store i1 false, ptr %retval, align 1
  br label %return

if.end:                                           ; preds = %if.then
  %3 = load ptr, ptr %mutex, align 8
  %call5 = call i32 @sem_wait(ptr noundef %3)
  %cmp6 = icmp eq i32 %call5, 0
  br i1 %cmp6, label %if.then7, label %if.end32

if.then7:                                         ; preds = %if.end
  %arraydecay8 = getelementptr inbounds [96 x i8], ptr %uniqueName, i64 0, i64 0
  %call9 = call ptr @getenv(ptr noundef %arraydecay8) #3
  store ptr %call9, ptr %pName, align 8
  %4 = load ptr, ptr %pName, align 8
  %tobool10 = icmp ne ptr %4, null
  br i1 %tobool10, label %land.lhs.true, label %if.else

land.lhs.true:                                    ; preds = %if.then7
  %5 = load ptr, ptr %pName, align 8
  %arrayidx = getelementptr inbounds i8, ptr %5, i64 0
  %6 = load i8, ptr %arrayidx, align 1
  %tobool11 = icmp ne i8 %6, 0
  br i1 %tobool11, label %if.then12, label %if.else

if.then12:                                        ; preds = %land.lhs.true
  %7 = load ptr, ptr %pName, align 8
  %call13 = call i64 @strtoull(ptr noundef %7, ptr noundef null, i32 noundef 16) #3
  %8 = inttoptr i64 %call13 to ptr
  store ptr %8, ptr @_ZN12_GLOBAL__N_117gpOSGlobalManagerE, align 8
  br label %if.end23

if.else:                                          ; preds = %land.lhs.true, %if.then7
  %call14 = call noundef ptr @_ZN12_GLOBAL__N_121CreateOSGlobalManagerEv()
  store ptr %call14, ptr @_ZN12_GLOBAL__N_117gpOSGlobalManagerE, align 8
  %9 = load ptr, ptr @_ZN12_GLOBAL__N_117gpOSGlobalManagerE, align 8
  %tobool15 = icmp ne ptr %9, null
  br i1 %tobool15, label %if.then16, label %if.end22

if.then16:                                        ; preds = %if.else
  %arraydecay17 = getelementptr inbounds [32 x i8], ptr %buffer, i64 0, i64 0
  %10 = load ptr, ptr @_ZN12_GLOBAL__N_117gpOSGlobalManagerE, align 8
  %11 = ptrtoint ptr %10 to i64
  %call18 = call noundef i32 (ptr, ptr, ...) @_ZN2EA4StdC7SprintfEPcPKcz(ptr noundef %arraydecay17, ptr noundef @.str.4, i64 noundef %11)
  %arraydecay19 = getelementptr inbounds [96 x i8], ptr %uniqueName, i64 0, i64 0
  %arraydecay20 = getelementptr inbounds [32 x i8], ptr %buffer, i64 0, i64 0
  %call21 = call i32 @setenv(ptr noundef %arraydecay19, ptr noundef %arraydecay20, i32 noundef 1) #3
  br label %if.end22

if.end22:                                         ; preds = %if.then16, %if.else
  br label %if.end23

if.end23:                                         ; preds = %if.end22, %if.then12
  %12 = load ptr, ptr @_ZN12_GLOBAL__N_117gpOSGlobalManagerE, align 8
  %tobool24 = icmp ne ptr %12, null
  br i1 %tobool24, label %if.then25, label %if.end27

if.then25:                                        ; preds = %if.end23
  %13 = load ptr, ptr @_ZN12_GLOBAL__N_117gpOSGlobalManagerE, align 8
  %mRefCount = getelementptr inbounds %"struct.(anonymous namespace)::OSGlobalManager", ptr %13, i32 0, i32 1
  %call26 = call noundef i32 @_ZN2EA4StdC15AtomicIncrementEPj(ptr noundef %mRefCount)
  br label %if.end27

if.end27:                                         ; preds = %if.then25, %if.end23
  %14 = load ptr, ptr %mutex, align 8
  %call28 = call i32 @sem_post(ptr noundef %14) #3
  %15 = load ptr, ptr %mutex, align 8
  %call29 = call i32 @sem_close(ptr noundef %15) #3
  %arraydecay30 = getelementptr inbounds [96 x i8], ptr %uniqueName, i64 0, i64 0
  %call31 = call i32 @sem_unlink(ptr noundef %arraydecay30) #3
  br label %if.end32

if.end32:                                         ; preds = %if.end27, %if.end
  %16 = load ptr, ptr @_ZN12_GLOBAL__N_117gpOSGlobalManagerE, align 8
  %tobool33 = icmp ne ptr %16, null
  br i1 %tobool33, label %if.end35, label %if.then34

if.then34:                                        ; preds = %if.end32
  call void @_ZN12_GLOBAL__N_122ShutdownOSGlobalSystemEv()
  store i1 false, ptr %retval, align 1
  br label %return

if.end35:                                         ; preds = %if.end32
  %call36 = call noundef i32 @_ZN2EA4StdC15AtomicIncrementEPj(ptr noundef @_ZN12_GLOBAL__N_113gOSGlobalRefsE)
  br label %if.end37

if.end37:                                         ; preds = %if.end35, %entry
  store i1 true, ptr %retval, align 1
  br label %return

return:                                           ; preds = %if.end37, %if.then34, %if.then4
  %17 = load i1, ptr %retval, align 1
  ret i1 %17
}