; Function Attrs: mustprogress uwtable
define internal fastcc noundef zeroext i1 @_ZN12_GLOBAL__N_118InitOSGlobalSystemEv() unnamed_addr #0 personality ptr @__gxx_personality_v0 {
entry:
  %uniqueName.i = alloca [96 x i8], align 16
  %uniqueName = alloca [96 x i8], align 16
  %buffer = alloca [32 x i8], align 16
  %0 = load ptr, ptr @_ZN12_GLOBAL__N_117gpOSGlobalManagerE, align 8
  %tobool.not = icmp eq ptr %0, null
  br i1 %tobool.not, label %if.then, label %return

if.then:                                          ; preds = %entry
  %call = tail call i32 @getpid() #12
  %conv = sext i32 %call to i64
  %call1 = call noundef i32 (ptr, ptr, ...) @_ZN2EA4StdC7SprintfEPcPKcz(ptr noundef nonnull %uniqueName, ptr noundef nonnull @.str, i64 noundef %conv)
  %call3 = call ptr (ptr, i32, ...) @sem_open(ptr noundef nonnull %uniqueName, i32 noundef 64, i32 noundef 420, i32 noundef 1) #12
  %cmp = icmp eq ptr %call3, null
  br i1 %cmp, label %return, label %if.end

if.end:                                           ; preds = %if.then
  %call5 = call i32 @sem_wait(ptr noundef nonnull %call3)
  %cmp6 = icmp eq i32 %call5, 0
  br i1 %cmp6, label %if.then7, label %if.end32

if.then7:                                         ; preds = %if.end
  %call9 = call ptr @getenv(ptr noundef nonnull %uniqueName) #12
  %tobool10.not = icmp eq ptr %call9, null
  br i1 %tobool10.not, label %if.else, label %land.lhs.true

land.lhs.true:                                    ; preds = %if.then7
  %1 = load i8, ptr %call9, align 1
  %tobool11.not = icmp eq i8 %1, 0
  br i1 %tobool11.not, label %if.else, label %if.then12

if.then12:                                        ; preds = %land.lhs.true
  %call13 = call i64 @strtoull(ptr noundef nonnull captures(none) %call9, ptr noundef null, i32 noundef 16) #12
  %2 = inttoptr i64 %call13 to ptr
  store ptr %2, ptr @_ZN12_GLOBAL__N_117gpOSGlobalManagerE, align 8
  br label %if.end23

if.else:                                          ; preds = %land.lhs.true, %if.then7
  %call.i = call ptr @mmap(ptr noundef null, i64 noundef 72, i32 noundef 3, i32 noundef 34, i32 noundef -1, i64 noundef 0) #12
  %tobool.not.i = icmp eq ptr %call.i, null
  br i1 %tobool.not.i, label %if.end23.thread, label %if.then16

if.end23.thread:                                  ; preds = %if.else
  store ptr null, ptr @_ZN12_GLOBAL__N_117gpOSGlobalManagerE, align 8
  br label %if.end27

if.then16:                                        ; preds = %if.else
  %mpPrev.i.i.i.i = getelementptr inbounds nuw i8, ptr %call.i, i64 8
  store ptr %call.i, ptr %mpPrev.i.i.i.i, align 8
  store ptr %call.i, ptr %call.i, align 8
  %mcsLock.i.i = getelementptr inbounds nuw i8, ptr %call.i, i64 24
  call void @_ZN2EA6Thread5MutexC1EPKNS0_15MutexParametersEb(ptr noundef nonnull align 8 dereferenceable(48) %mcsLock.i.i, ptr noundef null, i1 noundef zeroext true)
  %mRefCount.i.i = getelementptr inbounds nuw i8, ptr %call.i, i64 16
  %3 = atomicrmw xchg ptr %mRefCount.i.i, i32 0 seq_cst, align 4
  store ptr %call.i, ptr @_ZN12_GLOBAL__N_117gpOSGlobalManagerE, align 8
  %4 = ptrtoint ptr %call.i to i64
  %call18 = call noundef i32 (ptr, ptr, ...) @_ZN2EA4StdC7SprintfEPcPKcz(ptr noundef nonnull %buffer, ptr noundef nonnull @.str.4, i64 noundef %4)
  %call21 = call i32 @setenv(ptr noundef nonnull %uniqueName, ptr noundef nonnull %buffer, i32 noundef 1) #12
  %.pr = load ptr, ptr @_ZN12_GLOBAL__N_117gpOSGlobalManagerE, align 8
  br label %if.end23

if.end23:                                         ; preds = %if.then16, %if.then12
  %5 = phi ptr [ %.pr, %if.then16 ], [ %2, %if.then12 ]
  %tobool24.not = icmp eq ptr %5, null
  br i1 %tobool24.not, label %if.end27, label %if.then25

if.then25:                                        ; preds = %if.end23
  %mRefCount = getelementptr inbounds nuw i8, ptr %5, i64 16
  %6 = atomicrmw add ptr %mRefCount, i32 1 seq_cst, align 4
  br label %if.end27

if.end27:                                         ; preds = %if.end23.thread, %if.then25, %if.end23
  %call28 = call i32 @sem_post(ptr noundef nonnull %call3) #12
  %call29 = call i32 @sem_close(ptr noundef nonnull %call3) #12
  %call31 = call i32 @sem_unlink(ptr noundef nonnull %uniqueName) #12
  br label %if.end32

if.end32:                                         ; preds = %if.end27, %if.end
  %7 = load ptr, ptr @_ZN12_GLOBAL__N_117gpOSGlobalManagerE, align 8
  %tobool33.not = icmp eq ptr %7, null
  br i1 %tobool33.not, label %if.then34, label %if.end35

if.then34:                                        ; preds = %if.end32
  call void @llvm.lifetime.start.p0(i64 96, ptr nonnull %uniqueName.i)
  %8 = atomicrmw add ptr @_ZN12_GLOBAL__N_113gOSGlobalRefsE, i32 -1 seq_cst, align 4
  %cmp.i = icmp eq i32 %8, 1
  br i1 %cmp.i, label %if.then.i6, label %_ZN12_GLOBAL__N_122ShutdownOSGlobalSystemEv.exit

if.then.i6:                                       ; preds = %if.then34
  %9 = load ptr, ptr @_ZN12_GLOBAL__N_117gpOSGlobalManagerE, align 8
  %tobool.not.i7 = icmp eq ptr %9, null
  br i1 %tobool.not.i7, label %if.end5.i, label %if.then1.i

if.then1.i:                                       ; preds = %if.then.i6
  %mRefCount.i = getelementptr inbounds nuw i8, ptr %9, i64 16
  %10 = atomicrmw add ptr %mRefCount.i, i32 -1 seq_cst, align 4
  %cmp3.i = icmp eq i32 %10, 1
  br i1 %cmp3.i, label %if.then4.i, label %if.end.i

if.then4.i:                                       ; preds = %if.then1.i
  %11 = load ptr, ptr @_ZN12_GLOBAL__N_117gpOSGlobalManagerE, align 8
  %tobool.not.i.i = icmp eq ptr %11, null
  br i1 %tobool.not.i.i, label %if.end.i, label %if.then.i.i

if.then.i.i:                                      ; preds = %if.then4.i
  %mcsLock.i.i.i = getelementptr inbounds nuw i8, ptr %11, i64 24
  call void @_ZN2EA6Thread5MutexD1Ev(ptr noundef nonnull align 8 dereferenceable(48) %mcsLock.i.i.i) #12
  %call.i.i = call i32 @munmap(ptr noundef nonnull %11, i64 noundef 72) #12
  br label %if.end.i

if.end.i:                                         ; preds = %if.then.i.i, %if.then4.i, %if.then1.i
  store ptr null, ptr @_ZN12_GLOBAL__N_117gpOSGlobalManagerE, align 8
  br label %if.end5.i

if.end5.i:                                        ; preds = %if.end.i, %if.then.i6
  store i8 0, ptr %uniqueName.i, align 16
  %call6.i = call i32 @getpid() #12
  %conv.i = sext i32 %call6.i to i64
  %call7.i = call noundef i32 (ptr, ptr, ...) @_ZN2EA4StdC7SprintfEPcPKcz(ptr noundef nonnull %uniqueName.i, ptr noundef nonnull @.str, i64 noundef %conv.i)
  %call9.i = call i32 @unsetenv(ptr noundef nonnull %uniqueName.i) #12
  br label %_ZN12_GLOBAL__N_122ShutdownOSGlobalSystemEv.exit

_ZN12_GLOBAL__N_122ShutdownOSGlobalSystemEv.exit: ; preds = %if.then34, %if.end5.i
  call void @llvm.lifetime.end.p0(i64 96, ptr nonnull %uniqueName.i)
  br label %return

if.end35:                                         ; preds = %if.end32
  %12 = atomicrmw add ptr @_ZN12_GLOBAL__N_113gOSGlobalRefsE, i32 1 seq_cst, align 4
  br label %return

return:                                           ; preds = %entry, %if.end35, %if.then, %_ZN12_GLOBAL__N_122ShutdownOSGlobalSystemEv.exit
  %retval.0 = phi i1 [ false, %_ZN12_GLOBAL__N_122ShutdownOSGlobalSystemEv.exit ], [ false, %if.then ], [ true, %if.end35 ], [ true, %entry ]
  ret i1 %retval.0
}